; Function Attrs: nounwind uwtable
define ptr @duckdb_je_prof_tdata_reinit(ptr noundef %0, ptr noundef %1) local_unnamed_addr #4 {
  %3 = alloca [16 x i8], align 16
  %4 = getelementptr inbounds nuw i8, ptr %1, i64 8
  %5 = load i64, ptr %4, align 8, !tbaa !21
  %6 = getelementptr inbounds nuw i8, ptr %1, i64 16
  %7 = load i64, ptr %6, align 8, !tbaa !28
  %8 = add i64 %7, 1
  %9 = getelementptr inbounds nuw i8, ptr %1, i64 116
  %10 = load i8, ptr %9, align 4, !tbaa !29, !range !19, !noundef !20
  %11 = trunc nuw i8 %10 to i1
  call void @llvm.lifetime.start.p0(i64 16, ptr nonnull %3) #10
  %12 = getelementptr inbounds nuw i8, ptr %1, i64 96
  %13 = call ptr @strncpy(ptr noundef nonnull dereferenceable(1) %3, ptr noundef nonnull dereferenceable(1) %12, i64 noundef 16) #10
  call void @duckdb_je_prof_tdata_detach(ptr noundef %0, ptr noundef %1) #10
  %14 = call ptr @duckdb_je_prof_tdata_init_impl(ptr noundef %0, i64 noundef %5, i64 noundef %8, ptr noundef nonnull %3, i1 noundef zeroext %11) #10
  call void @llvm.lifetime.end.p0(i64 16, ptr nonnull %3) #10
  ret ptr %14
}